cnumpy.core.multiarray
_reconstruct
p0
(cnumpy
ndarray
p1
(I0
tp2
S'b'
p3
tp4
Rp5
(I1
(I76
tp6
cnumpy
dtype
p7
(S'O8'
p8
I0
I1
tp9
Rp10
(I3
S'|'
p11
NNNI-1
I-1
I63
tp12
bI00
(lp13
S'FRNCHGLH_6_N001'
p14
aS'DELMNTE_1_N201'
p15
aS'BNAVSTA_6_N002'
p16
aS'BAHIA_2_N011'
p17
aS'BARRY_6_N001'
p18
aS'PRUNEDLE_1_N001'
p19
aS'HILLSIDE_1_N004'
p20
aS'TAFT1_1_N001'
p21
aS'WARNERVL_2_B1'
p22
aS'ELKCREEK_6_N001'
p23
aS'SANRAMON_2_N024'
p24
aS'SOBRANTE_1_N001'
p25
aS'ELCRRTO_1_N001'
p26
aS'WHITMORE_6_N001'
p27
aS'HIDESERT_2_N001'
p28
aS'DIABLO2_7_B1'
p29
aS'LOSCCHS_6_N001'
p30
aS'MTVIEW_1_N005'
p31
aS'ALTO_6_N101'
p32
aS'ALTWIND_1_N001'
p33
aS'GARNET_1_N106'
p34
aS'SEAWIND_1_B1'
p35
aS'MEADN_2_N501'
p36
aS'CLAYTN_1_N001'
p37
aS'CAPWIND_1_B1'
p38
aS'MCCULLGX_5_N501'
p39
aS'STDOIL_1_N009'
p40
aS'PETLMAC_6_N004'
p41
aS'CONCHO_1_N002'
p42
aS'ESTQNCY_6_N001'
p43
aS'OMAR1G_7_B1'
p44
aS'CREELMAN_6_N014'
p45
aS'EDMON6AP_7_N001'
p46
aS'SPRINGVL_6_N002'
p47
aS'MIDWAY_1_B1'
p48
aS'MCMULLN1_2_N001'
p49
aS'CLARKRD_7_N001'
p50
aS'OROLOMA_6_N001'
p51
aS'LSPSTAS_2_N002'
p52
aS'SALINAS_1_N033'
p53
aS'CARBONA_6_N003'
p54
aS'CHARKA_1_N001'
p55
aS'WPBART_1_N004'
p56
aS'TRACY_1_N002'
p57
aS'KERNFRNT_1_B1'
p58
aS'RADUM_6_N004'
p59
aS'SANRAFL_1_N001'
p60
aS'KAMM_1_N001'
p61
aS'PIT1U1_7_B1'
p62
aS'RIOBRVTM_1_B1'
p63
aS'HAMMONDS_1_N001'
p64
aS'VSTA_6_N001'
p65
aS'AVOCADO_6_N002'
p66
aS'RENFRO_1_N010'
p67
aS'FRUITVLE_6_N101'
p68
aS'BRKRSLG_1_N005'
p69
aS'DEEPWATR_1_N104'
p70
aS'GOLDTREE_1_N001'
p71
aS'KERMAN_6_N002'
p72
aS'WSCOPRSN_1_N001'
p73
aS'HOLGATE_1_N001'
p74
aS'STOCKDL_2_N002'
p75
aS'PSE-BEAR_7_B1'
p76
aS'CHANNEL_6_N001'
p77
aS'DAVIS_1_N018'
p78
aS'ROCKET_1_N001'
p79
aS'LUZ8G_7_B1'
p80
aS'KERNOIL_1_N002'
p81
aS'DVLCYN2G_7_B1'
p82
aS'KERNOIL_1_N012'
p83
aS'MHVSPHN_1_N101'
p84
aS'MTNVIST3_7_N002'
p85
aS'EDENVALE_1_N006'
p86
aS'VSTA_1_N005'
p87
aS'KERNWATR_1_N001'
p88
aS'MERCED_1_N001'
p89
atp90
b.