(lp0
S'ACTONSC_6_N001'
p1
aS'AEC300_1_N001'
p2
aS'AGNEW_1_N003'
p3
aS'AIRPROD_1_N001'
p4
aS'ALAMITOS_2_N001'
p5
aS'ALAMITOS_2_N040'
p6
aS'ALAMT1G_7_B1'
p7
aS'ALAMT2G_7_N002'
p8
aS'ALAMT3G_7_N002'
p9
aS'ALAMT5G_7_N002'
p10
aS'ALAMT6G_7_B1'
p11
aS'ALAMT6G_7_N002'
p12
aS'ALMADEN_6_N001'
p13
aS'ALPINE_6_N001'
p14
aS'ALPINE_6_N005'
p15
aS'ALTA2G_7_B1'
p16
aS'ALTMMDW_2_N001'
p17
aS'AMESBS_1_N004'
p18
aS'AMESDST_1_N001'
p19
aS'ANAHEIMG_7_B1'
p20
aS'ANGIOLA_6_N001'
p21
aS'ANITA_6_N001'
p22
aS'ANTELOPE_6_N001'
p23
aS'ANTIOCH_6_N001'
p24
aS'ARBUCKLE_6_N001'
p25
aS'ARCATA_6_N001'
p26
aS'ARCO1G_7_B1'
p27
aS'ARVINED_1_N001'
p28
aS'ASH_6_N001'
p29
aS'ASH_6_N005'
p30
aS'ASH_6_N101'
p31
aS'ATASCDRO_6_N001'
p32
aS'AUBURN_6_N001'
p33
aS'AVENA_1_N001'
p34
aS'BAHIA_2_N001'
p35
aS'BAIR_1_N001'
p36
aS'BAKER_1_N001'
p37
aS'BALCH3TP_2_B1'
p38
aS'BALFOUR_6_N001'
p39
aS'BARRETT_6_N001'
p40
aS'BARRE_2_N043'
p41
aS'BARRE_6_N001'
p42
aS'BARRE_6_N002'
p43
aS'BARTON_1_N008'
p44
aS'BATAVIA_6_N001'
p45
aS'BATIQTOS_1_N015'
p46
aS'BAYMDWS_1_N004'
p47
aS'BAYMDWS_1_N012'
p48
aS'BCKSCRK_2_B1'
p49
aS'BCRK1-2_1_N003'
p50
aS'BCRK1-2_1_N004'
p51
aS'BCRK4_7_B3'
p52
aS'BELLOTA_2_B1'
p53
aS'BELLPGE_1_N001'
p54
aS'BELRIDGE_1_N001'
p55
aS'BERNARDO_6_N001'
p56
aS'BERNARDO_6_N002'
p57
aS'BERNARDO_6_N014'
p58
aS'BIGCRK1_2_B1'
p59
aS'BIGCRK1_7_N001'
p60
aS'BIGCRK2_2_B1'
p61
aS'BIGCRK3_2_B1'
p62
aS'BIGCRK4_2_B1'
p63
aS'BIGCRK8_2_B1'
p64
aS'BLCH38751_7_B1'
p65
aS'BLLEHVN_6_N002'
p66
aS'BLLEHVN_6_N004'
p67
aS'BLLEHVN_6_N006'
p68
aS'BLLEHVN_6_N007'
p69
aS'BLYTHESC_1_N005'
p70
aS'BLYTHE_1_N101'
p71
aS'BOGUE_1_N201'
p72
aS'BOLINAS_6_N001'
p73
aS'BOLTHSE_1_N009'
p74
aS'BORDEN_2_N008'
p75
aS'BORDER_6_N001'
p76
aS'BORDER_6_N008'
p77
aS'BRDGVLLE_1_B1'
p78
aS'BRDGVLT_7_N002'
p79
aS'BRENTWOD_2_N006'
p80
aS'BRITTN_1_N001'
p81
aS'BRITTN_1_N006'
p82
aS'BRUNSWCK_1_N003'
p83
aS'BRUNSWCK_1_N008'
p84
aS'BRWNSVY_6_N001'
p85
aS'BSPHYD34_1_N001'
p86
aS'BUELLTON_1_N001'
p87
aS'BUENAVS1_7_B1'
p88
aS'BUENAVS1_7_B4'
p89
aS'BUENAVS1_7_B5'
p90
aS'BUENAVS1_7_B6'
p91
aS'BUENAVS2_7_B1'
p92
aS'BUENAVT_2_N006'
p93
aS'BULLARD_1_N001'
p94
aS'BULLARD_1_N005'
p95
aS'B_6_N001'
p96
aS'B_6_N003'
p97
aS'CABRILLO_6_N004'
p98
aS'CALAVE_1_N001'
p99
aS'CALAVE_1_N002'
p100
aS'CALAVE_1_N004'
p101
aS'CALCMENT_6_N101'
p102
aS'CALCMENT_6_N151'
p103
aS'CALISTGA_6_N001'
p104
aS'CAMDEN_6_N001'
p105
aS'CAMERON_6_N001'
p106
aS'CAMINO_2_N001'
p107
aS'CAPSTRNO_1_N001'
p108
aS'CAPSTRNO_1_N006'
p109
aS'CAPSTRNO_1_N016'
p110
aS'CARBOGEN_7_B1'
p111
aS'CARLOTTA_6_N003'
p112
aS'CARLTNHS_1_N004'
p113
aS'CARLTNHS_1_N011'
p114
aS'CARLTNHS_1_N012'
p115
aS'CARNATIO_6_N001'
p116
aS'CASTROVL_2_N001'
p117
aS'CATALYST_7_N002'
p118
aS'CCOS6_7_B1'
p119
aS'CCOS7_7_B1'
p120
aS'CCOSTA_2_B1'
p121
aS'CCSUB_1_N001'
p122
aS'CENTERS_6_N200'
p123
aS'CHCARITA_1_N012'
p124
aS'CHENY_1_N001'
p125
aS'CHEVGEN2_7_B1'
p126
aS'CHICOA_6_N010'
p127
aS'CHICOB_1_N001'
p128
aS'CHICOB_1_N002'
p129
aS'CHINO_6_N003'
p130
aS'CHINO_6_N007'
p131
aS'CHINO_6_N008'
p132
aS'CHINO_6_N009'
p133
aS'CHOLLAS_6_N001'
p134
aS'CHOLLAS_6_N008'
p135
aS'CHOWCOGN_7_N001'
p136
aS'CHSTN_115_B1'
p137
aS'CHWCHLLA_1_N001'
p138
aS'CHWCHLLA_1_N002'
p139
aS'CICCOGN_7_N001'
p140
aS'CICCOGN_7_N002'
p141
aS'CIMA_2_N101'
p142
aS'CITYUKH_1_B1'
p143
aS'CITYUKH_1_N001'
p144
aS'CLAIRMNT_6_N001'
p145
aS'CLAIRMNT_6_N008'
p146
aS'CLAYTN_1_N030'
p147
aS'CLERLKE_6_N012'
p148
aS'CLOVIS_1_N001'
p149
aS'CLOVIS_1_N004'
p150
aS'CLOVIS_1_N101'
p151
aS'CLOVRDLE_1_N001'
p152
aS'CLRKSVLE_1_N004'
p153
aS'CLRKSVLE_1_N010'
p154
aS'CMPEVRS_1_N001'
p155
aS'CMPEVRS_1_N002'
p156
aS'CNTRYCB_6_N001'
p157
aS'CNTRYCB_6_N002'
p158
aS'COBURN_2_B1'
p159
aS'COLLRVL2_7_B1'
p160
aS'COLUMBUS_1_N003'
p161
aS'COLUMBUS_1_N005'
p162
aS'COLWATER_1_N001'
p163
aS'COLWATER_1_N002'
p164
aS'CONTROLX_1_N003'
p165
aS'CONTROLX_1_N005'
p166
aS'CONTROL_1_B1'
p167
aS'CONTROL_1_N034'
p168
aS'CONTROL_7_N001'
p169
aS'CORDELIA_1_N001'
p170
aS'CORNING_6_N006'
p171
aS'CORONADO_6_N001'
p172
aS'CORRAL_6_N001'
p173
aS'CORRAL_6_N003'
p174
aS'CORSGOLD_1_N003'
p175
aS'COTATI_6_N101'
p176
aS'COTATI_6_N102'
p177
aS'COTTLE_7_N002'
p178
aS'COTWDPGE_1_N001'
p179
aS'COTWDWAP_2_N029'
p180
aS'COTWDWAP_2_N030'
p181
aS'COVERD_7_B1'
p182
aS'CPBORDER_7_B1'
p183
aS'CPESCNDO_7_A1'
p184
aS'CPESCNDO_7_B1'
p185
aS'CPLECEF_1_N005'
p186
aS'CRCANAL_6_N001'
p187
aS'CRCKTCOG_7_N001'
p188
aS'CREELMAN_6_N001'
p189
aS'CREELMAN_6_N004'
p190
aS'CRESTA_2_B1'
p191
aS'CROCKTAP_2_B1'
p192
aS'CRSTNTS_6_N001'
p193
aS'CSTRVLLE_1_N003'
p194
aS'CSTRVLLE_1_N004'
p195
aS'CTRPKGEN_7_B1'
p196
aS'CYMRIC_1_B1'
p197
aS'CYMRIC_1_N004'
p198
aS'DALYCTY_1_N001'
p199
aS'DALYCTY_1_N005'
p200
aS'DAVIS_1_N007'
p201
aS'DECCTG2_7_B1'
p202
aS'DECCTG3_7_B1'
p203
aS'DECSTG1_7_B1'
p204
aS'DELAMO_2_N001'
p205
aS'DELAMO_2_N022'
p206
aS'DELMAR_6_N001A'
p207
aS'DELMAR_6_N005'
p208
aS'DESCANSO_6_N001'
p209
aS'DFS_1_N001'
p210
aS'DGVADIX_7_B1'
p211
aS'DIABLO2_7_N001'
p212
aS'DINUBAE_7_N001'
p213
aS'DINUBA_6_N001'
p214
aS'DINUBA_6_N005'
p215
aS'DIVISION_6_N001'
p216
aS'DIVVIDE_1_N012'
p217
aS'DIXONLD_1_N008'
p218
aS'DIXON_6_N002'
p219
aS'DMNDSPR_1_N003'
p220
aS'DOSPALS_6_N001'
p221
aS'DSAMIGO_2_N011'
p222
aS'DUKMOSS1_7_B1'
p223
aS'DUKMOSS1_7_N001'
p224
aS'DUKMOSS2_7_B1'
p225
aS'DUKMOSS3_7_N002'
p226
aS'DUKMOSS4_7_N001'
p227
aS'DUKMOSS6_7_B2'
p228
aS'DUKMOSS6_7_N002'
p229
aS'DUMBARTN_1_N011'
p230
aS'DUNBAR_6_N001'
p231
aS'DUNNIGAN_6_N001'
p232
aS'DUNNSIDE_1_N001'
p233
aS'DVLCYN4G_7_B1'
p234
aS'EAGLEMTN_2_B1'
p235
aS'EAGLEMTN_2_N001'
p236
aS'EAGLROCK_2_N012'
p237
aS'EASTWOOD_7_B1'
p238
aS'EDENVALE_1_N001'
p239
aS'EDES_1_N003'
p240
aS'EDMON3AP_7_N002'
p241
aS'EDMON4AP_7_N001'
p242
aS'EDMON7AP_7_N001'
p243
aS'EDMON7AP_7_N002'
p244
aS'EDMON8AP_7_N002'
p245
aS'EDMONSTN_2_N023'
p246
aS'EIGHTMI_2_N017'
p247
aS'EISEN_6_N001'
p248
aS'ELCAJNGT_7_B3'
p249
aS'ELCAJNGT_7_N004'
p250
aS'ELCAPTN_1_N001'
p251
aS'ELDORDO_5_B1'
p252
aS'ELKCREEK_6_N003'
p253
aS'ELKHIL2G_7_N001'
p254
aS'ELK_6_N001'
p255
aS'ELLIS_2_B1'
p256
aS'ELLIS_6_N001'
p257
aS'ELLIS_6_N003'
p258
aS'ELLIS_6_N105'
p259
aS'ELLSGTY_1_N001'
p260
aS'ELNIDO_2_N001'
p261
aS'ELPATIO_1_N006'
p262
aS'ELSEG3G_7_B1'
p263
aS'ELSEG4G_7_B1'
p264
aS'EMBRCDR_2_N104'
p265
aS'ENCANWND_6_N001'
p266
aS'ENCINA1_7_B1'
p267
aS'ENCINA2_7_B1'
p268
aS'ENCINA3_7_B1'
p269
aS'ENCINA4_7_B1'
p270
aS'ENCINA5_7_B1'
p271
aS'ENCINAGT_7_B11'
p272
aS'ENCINA_1_B1'
p273
aS'ENCINA_1_N049'
p274
aS'ENCINA_2_B1'
p275
aS'ENCNITAS_6_N004'
p276
aS'ENCNITAS_6_N011'
p277
aS'ESCNDIDO_2_B1'
p278
aS'ESCNDIDO_6_N046'
p279
aS'ESCNDIDO_6_N053'
p280
aS'ESCO_6_N001'
p281
aS'ESCO_6_N004'
p282
aS'ESTGRND_1_N009'
p283
aS'ETIWANDA_6_N003'
p284
aS'ETIWANDA_6_N007'
p285
aS'EUREKAA_6_N001'
p286
aS'EUREKA_6_N001'
p287
aS'EVRGREEN_1_N019'
p288
aS'EXCHQRTP_7_B1'
p289
aS'FAIRHAVN_6_N001'
p290
aS'FAIRHAVN_7_B1'
p291
aS'FAIRWAY_1_N001'
p292
aS'FAIRWAY_1_N002'
p293
aS'FAMOSO_6_N008'
p294
aS'FELLOWSG_7_N002'
p295
aS'FIBRBJCT_1_B1'
p296
aS'FLINT_1_N001'
p297
aS'FMC_1_N001'
p298
aS'FMC_1_N003'
p299
aS'FORTORD_6_N001'
p300
aS'FOSTERW_7_N004'
p301
aS'FRIARS_1_N001'
p302
aS'FRIARS_1_N009'
p303
aS'FRIARS_1_N010'
p304
aS'FROGTOWN_7_N001'
p305
aS'FROGTOWN_7_N003'
p306
aS'FRTSWRD_6_N001'
p307
aS'FRTSWRD_6_N004'
p308
aS'FTCHMTN_6_N001'
p309
aS'FULTON_1_N020'
p310
aS'FULTON_2_B1'
p311
aS'F_6_N001'
p312
aS'F_6_N005'
p313
aS'GALE_1_N001'
p314
aS'GANSO_1_N001'
p315
aS'GARCIA_6_N001'
p316
aS'GARFIELD_6_N001'
p317
aS'GENESEE_6_N001'
p318
aS'GENE_2_N001'
p319
aS'GEYSER16_7_B1'
p320
aS'GEYSER20_7_B1'
p321
aS'GIFFEN_6_N001'
p322
aS'GILROYF_1_N001'
p323
aS'GIRVAN_6_N001'
p324
aS'GOALLINE_6_N001'
p325
aS'GOLDHILL_1_N033'
p326
aS'GOLETA_6_N002'
p327
aS'GOLETA_6_N003'
p328
aS'GOLETA_6_N004'
p329
aS'GOLETA_6_N022'
p330
aS'GOLETA_6_N100'
p331
aS'GORMAN_6_N001'
p332
aS'GOULD_2_N001'
p333
aS'GRANITE_6_N007'
p334
aS'GRANTRK_6_N001'
p335
aS'GRBRVLLE_6_N001'
p336
aS'GREENBRE_6_N003'
p337
aS'GRNTHLL_1_N001'
p338
aS'GRNVALY_1_N001'
p339
aS'GRNVALY_1_N025'
p340
aS'GRSSVLY_6_N101'
p341
aS'GUALALA_6_N001'
p342
aS'GUSTINE_6_N001'
p343
aS'GWFGT1_7_B1'
p344
aS'GYSRVLLE_6_N001'
p345
aS'GYSRVLLE_6_N003'
p346
aS'HALSEYF_7_B1'
p347
aS'HAMMER_6_N001'
p348
aS'HARBORG_7_B2'
p349
aS'HARBORG_7_B3'
p350
aS'HARBORG_7_B4'
p351
aS'HARBORG_7_N101'
p352
aS'HARRIS_6_N003'
p353
aS'HATTON_6_N001'
p354
aS'HELMS3_7_B1'
p355
aS'HIGHWAY_1_N002'
p356
aS'HILLGEN_7_B1'
p357
aS'HILLSIDE_1_N001'
p358
aS'HINSON_2_B1'
p359
aS'HLFMNBY_6_N002'
p360
aS'HMBLTBY_6_N003'
p361
aS'HMBLTBY_6_N022'
p362
aS'HOLLISTR_1_N001'
p363
aS'HOLLISTR_1_N004'
p364
aS'HOLM1_7_B1'
p365
aS'HOLM2_7_B1'
p366
aS'HOMEPROC_1_N001'
p367
aS'HOOPA_6_N001'
p368
aS'HORNO_6_N001'
p369
aS'HUMBOLDT_1_B1'
p370
aS'HUNT1G_7_B1'
p371
aS'HUNT1G_7_N002'
p372
aS'HUNT2G_7_B1'
p373
aS'HUNT2G_7_N002'
p374
aS'HUNT3G_7_B1'
p375
aS'HUNT3G_7_N002'
p376
aS'HURON_6_N001'
p377
aS'HYATT1_7_B1'
p378
aS'HYATT2_7_B1'
p379
aS'HYATT3_7_B1'
p380
aS'HYATT4_7_B1'
p381
aS'HYATT6_7_B1'
p382
aS'HYATT_2_N212'
p383
aS'IBM-HRRS_1_N101'
p384
aS'ICEGEN_7_B1'
p385
aS'IGNACIO_1_N102'
p386
aS'IMPRLVLY_5_B2'
p387
aS'INYOKERN_1_B1'
p388
aS'INYOKERN_1_N001'
p389
aS'INYOKERN_1_N008'
p390
aS'INYO_2_N101'
p391
aS'IRONMTN_2_N001'
p392
aS'IUKA_6_N001'
p393
aS'JACINTO_6_N001'
p394
aS'JAMACHA_6_N001'
p395
aS'JAMESON_1_N001'
p396
aS'JANSCRK_6_N003'
p397
aS'JBBLACK2_7_B1'
p398
aS'JENNY_1_N001'
p399
aS'JENNY_1_N008'
p400
aS'JHINDS_2_B1'
p401
aS'JOHANNA_2_N007'
p402
aS'JOHANNA_2_N013'
p403
aS'JOLON_6_N001'
p404
aS'JVENTER_2_N001'
p405
aS'KEARNEY_7_B3'
p406
aS'KEARNEY_7_N001'
p407
aS'KEARNEY_7_N003'
p408
aS'KELSO_2_N001'
p409
aS'KELSO_2_N012'
p410
aS'KERNRDGE_1_N001'
p411
aS'KESWICK_6_N001'
p412
aS'KETTLEMN_6_N001'
p413
aS'KETTNER_6_N001'
p414
aS'KETTNER_6_N004'
p415
aS'KINGCTY_6_N001'
p416
aS'KINGCTY_6_N005'
p417
aS'KINGSBRG_1_N008'
p418
aS'KINGSRIV_7_B1'
p419
aS'KIRKER_1_N001'
p420
aS'KIRKER_1_N005'
p421
aS'KONOCTI6_6_N001'
p422
aS'LAFRESA_6_N001'
p423
aS'LAFRESA_6_N003'
p424
aS'LAFRESA_6_N007'
p425
aS'LAGNANL_1_N001'
p426
aS'LAGUBELL_2_B1'
p427
aS'LAGUBELL_6_N005'
p428
aS'LAGUBELL_6_N210'
p429
aS'LAGUNITS_6_N001'
p430
aS'LAJOLLA_6_N001'
p431
aS'LAJOLLA_6_N007'
p432
aS'LAKEVIEW_6_N101'
p433
aS'LAKEVILE_2_B1'
p434
aS'LAKEWOOD_1_N006'
p435
aS'LAKEWOOD_1_N007'
p436
aS'LAKE_2_N023'
p437
aS'LAKE_2_N026'
p438
aS'LAKE_2_N027'
p439
aS'LAKE_2_N029'
p440
aS'LAKE_2_N030'
p441
aS'LAKE_2_N031'
p442
aS'LAKE_2_N032'
p443
aS'LAKE_2_N404'
p444
aS'LAMONT_1_N001'
p445
aS'LAMONT_1_N002'
p446
aS'LAPLMG1_7_B2'
p447
aS'LAPLMG2_7_N001'
p448
aS'LAPLMG4_7_B2'
p449
aS'LASPULGS_6_N001'
p450
aS'LAWRENCE_1_N001'
p451
aS'LAWRENCE_1_N004'
p452
aS'LAWRENCE_1_N006'
p453
aS'LBEACH2G_7_N001'
p454
aS'LBEACH2G_7_N002'
p455
aS'LBEACH3G_7_N001'
p456
aS'LBEACH4G_7_N001'
p457
aS'LCIENEGA_6_N001'
p458
aS'LECEFGT1_7_B1'
p459
aS'LERDO_1_N001'
p460
aS'LIMESTNE_6_N005'
p461
aS'LITEHIPE_6_N001'
p462
aS'LITEHIPE_6_N006'
p463
aS'LITEHIPE_6_N008'
p464
aS'LLAGAS_1_N005'
p465
aS'LMEC1_1_N001'
p466
aS'LMEC1_1_N801'
p467
aS'LMECCT1_7_N001'
p468
aS'LMECCT2_7_B1'
p469
aS'LMECCT2_7_N001'
p470
aS'LMECST1_7_N001'
p471
aS'LOCKHD2_1_N001'
p472
aS'LOGANCR_2_N012'
p473
aS'LOSBANOS_5_B1'
p474
aS'LOSCOCHS_6_N001'
p475
aS'LOSCOCHS_6_N033'
p476
aS'LOSGATS_6_N002'
p477
aS'LOSGATS_6_N201'
p478
aS'LOSOSTS_6_N001'
p479
aS'LSGLLNS_1_N003'
p480
aS'LUCERNE_1_N001'
p481
aS'LUCERNE_1_N004'
p482
aS'LUIS#5_1_N001'
p483
aS'LYTNVLLE_6_N001'
p484
aS'MAINE-PR_6_N001'
p485
aS'MALAGA_1_N206'
p486
aS'MAMOTH1G_7_B1'
p487
aS'MAMOTH2G_7_B1'
p488
aS'MANCHSTR_1_N005'
p489
aS'MANDLY1G_7_N002'
p490
aS'MANDLY3G_7_B1'
p491
aS'MANDLY3G_7_N001'
p492
aS'MANVILLE_1_N001'
p493
aS'MARGARTA_1_N002'
p494
aS'MARGARTA_1_N009'
p495
aS'MARIPOS2_6_N001'
p496
aS'MARTELL_6_N001'
p497
aS'MCARTHR_6_N001'
p498
aS'MCKEE_1_N001'
p499
aS'MCKEE_1_N005'
p500
aS'MCKEE_1_N101'
p501
aS'MECCTG1_7_B1'
p502
aS'MECCTG2_7_N100'
p503
aS'MECSTG3_7_B1'
p504
aS'MEDWLNE_1_N006'
p505
aS'MELROSE_6_N005'
p506
aS'MELROSE_6_N009'
p507
aS'MENLO_6_N001'
p508
aS'MESACAL_6_N001'
p509
aS'MESARIM_6_N012'
p510
aS'METCALF_1_N044'
p511
aS'MIDDLTWN_6_N101'
p512
aS'MIDWAY_1_N002'
p513
aS'MIDWAY_2_B1'
p514
aS'MILLBRAE_1_N001'
p515
aS'MILPITAS_1_N001'
p516
aS'MILPITAS_1_N003'
p517
aS'MILPITAS_1_N006'
p518
aS'MIRALOMA_6_N001'
p519
aS'MIRALOMA_6_N007'
p520
aS'MIRAMAR_6_N001'
p521
aS'MIRAMAR_6_N004'
p522
aS'MIRAMREF_7_B1'
p523
aS'MISSION_2_N035'
p524
aS'MISSON_1_N015'
p525
aS'MNDCTP_6_N001'
p526
aS'MOENKOPI_5_N101'
p527
aS'MOFTFLD_1_N002'
p528
aS'MOH-LGHN_5_N001'
p529
aS'MONOLITH_6_B1'
p530
aS'MONROE_1_N001'
p531
aS'MONROE_1_N002'
p532
aS'MONSRATE_6_N001'
p533
aS'MONTCLLO_1_N008'
p534
aS'MONTEREY_6_N001'
p535
aS'MONTERO_6_N001'
p536
aS'MONTERO_6_N004'
p537
aS'MONTGMRY_6_N001'
p538
aS'MONTGMRY_6_N002'
p539
aS'MOORPARK_6_N001'
p540
aS'MOORPARK_6_N007'
p541
aS'MORGAN_1_N001'
p542
aS'MOROHILL_6_N001'
p543
aS'MORRO3_7_B1'
p544
aS'MORRO4_7_B1'
p545
aS'MORROBAY_2_B1'
p546
aS'MORROBAY_2_N001'
p547
aS'MOSSLD_1_N055'
p548
aS'MOSSLND6_7_B2'
p549
aS'MOSSLND7_7_B2'
p550
aS'MPLECRK_6_N001'
p551
aS'MREIS-Q_1_N001'
p552
aS'MRGNHIL_1_N007'
p553
aS'MRLPKGEN_7_B1'
p554
aS'MSHR60V_6_N001'
p555
aS'MTEDEN_1_N009'
p556
aS'MTNPASS_1_N001'
p557
aS'MTNQUAR_6_N001'
p558
aS'MTNVIST3_7_B1'
p559
aS'MTNVIST4_7_N002'
p560
aS'MURRAY_6_N005'
p561
aS'MURRAY_6_N015'
p562
aS'NAPA_6_N003'
p563
aS'NARROWS_6_N010'
p564
aS'NATNLCTY_6_N001'
p565
aS'NATNLCTY_6_N005'
p566
aS'NAVSTMTR_6_N001'
p567
aS'NAVSTMTR_6_N011'
p568
aS'NCMETER_1_N001'
p569
aS'NCPA2GY1_7_B2'
p570
aS'NCPA2GY1_7_N001'
p571
aS'NCPA2GY2_7_N001'
p572
aS'NEWARKD_1_B2'
p573
aS'NEWBURG_6_N001'
p574
aS'NEWBURG_6_N003'
p575
aS'NEWHALL_1_N001'
p576
aS'NEWHALL_1_N002'
p577
aS'NEWMAN_6_N001'
p578
aS'NOISLMTR_6_N004'
p579
aS'NOISLMTR_6_N009'
p580
aS'NORCO_1_N001'
p581
aS'NORD1_1_N003'
p582
aS'NOVATO_6_N002'
p583
aS'NSCOGEN_7_B1'
p584
aS'NVYSCHL_6_N001'
p585
aS'OAKDLTID_1_N001'
p586
aS'OAKHURST_1_N001'
p587
aS'OAKHURST_1_N002'
p588
aS'OCEANSDE_6_N002'
p589
aS'OILDALE_1_N001'
p590
aS'OILFLDS_6_N009'
p591
aS'OLDTOWN_6_N001'
p592
aS'OLETA_6_N003'
p593
aS'OLINDA_6_N001'
p594
aS'OLINDA_6_N002'
p595
aS'OLINDA_6_N004'
p596
aS'OLIVHRST_1_N002'
p597
aS'OMAR4G_7_B1'
p598
aS'OMAR_2_N001'
p599
aS'OREGNTRL_6_N001'
p600
aS'ORICK_6_N001'
p601
aS'ORLANDB_6_N001'
p602
aS'OROSI_6_N006'
p603
aS'OTAY_6_N001'
p604
aS'OTAY_6_N014'
p605
aS'OTAY_6_N017'
p606
aS'OTAY_6_N018'
p607
aS'OTTER_6_N001'
p608
aS'OXFORD_1_N001'
p609
aS'OXGEN_7_B1'
p610
aS'PACIFICA_6_N001'
p611
aS'PACIFICA_6_N003'
p612
aS'PADUA_6_N001'
p613
aS'PALOMAR_1_N001'
p614
aS'PALOMAR_1_N013'
p615
aS'PANAMA_6_N001'
p616
aS'PANOCHE_1_B1'
p617
aS'PARADISE_1_N001'
p618
aS'PARKWAY_2_N001'
p619
aS'PAULSWT_1_N001'
p620
aS'PAULSWT_1_N004'
p621
aS'PEACHTON_6_N001'
p622
aS'PEARBMAP_7_B3'
p623
aS'PEARBMAP_7_B4'
p624
aS'PEARBMBP_7_B1'
p625
aS'PEARBMBP_7_B3'
p626
aS'PEARBMBP_7_B4'
p627
aS'PEASE_1_N001'
p628
aS'PEASE_1_N008'
p629
aS'PENRYN_6_N001'
p630
aS'PERRY_6_N001'
p631
aS'PETLMAA_6_N001'
p632
aS'PETLMAC_6_N002'
p633
aS'PETLMAC_6_N003'
p634
aS'PHILLIPS_1_N001'
p635
aS'PICO_1_N001'
p636
aS'PICO_1_N004'
p637
aS'PIT5_7_N001'
p638
aS'PIT6U2_7_B1'
p639
aS'PIT7U1_7_B1'
p640
aS'PITSBRG_2_B1'
p641
aS'PITTSBRG_6_N101'
p642
aS'PLACER_1_N001'
p643
aS'PLAINFLD_6_N001'
p644
aS'PLUMAS_6_N001'
p645
aS'PNTARNA_6_N001'
p646
aS'POINTLMA_6_N014'
p647
aS'POTRERO_1_N001'
p648
aS'POWAY_6_N001'
p649
aS'PPSTLTAP_1_N104'
p650
aS'PROCGEN_7_B1'
p651
aS'PRUNEDLE_1_N002'
p652
aS'PSARBLS_6_N007'
p653
aS'PUEBLOPG_1_N001'
p654
aS'PURISIMA_1_N001'
p655
aS'QUEBEC_1_N001'
p656
aS'RAWSON_6_N001'
p657
aS'RCARMEL_6_N001'
p658
aS'RECTOR_6_N001'
p659
aS'RECTOR_6_N004'
p660
aS'RECTOR_6_N007'
p661
aS'RECTOR_6_N009'
p662
aS'REDON5G_7_B1'
p663
aS'REDON6G_7_B1'
p664
aS'REDWOOD_6_N006'
p665
aS'REEDLEY_1_N001'
p666
aS'REEDLEY_6_N001'
p667
aS'RENWIND_1_N001'
p668
aS'RERCU2_7_B1'
p669
aS'RINCON_1_N001'
p670
aS'RINCON_1_N003'
p671
aS'RINCON_6_N001'
p672
aS'RINCON_6_N008'
p673
aS'RIODELL_6_N001'
p674
aS'RIOHONDO_6_N007'
p675
aS'RIOOSO_1_N033'
p676
aS'RIVERROC_6_N001'
p677
aS'RIVRBANK_1_N001'
p678
aS'RIVRSIDE_6_N001'
p679
aS'RNCHSECO_2_N107'
p680
aS'ROA-230_2_N101'
p681
aS'ROCKCK2_7_B1'
p682
aS'ROCKLIN_6_N001'
p683
aS'ROCKLIN_6_N003'
p684
aS'ROSECYN_6_N001'
p685
aS'ROSE_6_N001'
p686
aS'ROSSMOOR_2_N001'
p687
aS'ROSSMOOR_2_N101'
p688
aS'ROUNDMT_2_B1'
p689
aS'RTRACK_1_N001'
p690
aS'RUSSRCH_6_N001'
p691
aS'SANCRLS_6_N004'
p692
aS'SANGERCO_7_B1'
p693
aS'SANJOQN_6_N001'
p694
aS'SANJOQN_6_N006'
p695
aS'SANLUIS2_7_B1'
p696
aS'SANLUIS2_7_B3'
p697
aS'SANLUIS8_7_B1'
p698
aS'SANLUIS8_7_B3'
p699
aS'SANLUSRY_6_N013'
p700
aS'SANLUSRY_6_N014'
p701
aS'SANLUSRY_6_N201'
p702
aS'SANMATEO_1_N001'
p703
aS'SANMATEO_1_N009'
p704
aS'SANMRCOS_6_N001'
p705
aS'SANMRCOS_6_N011'
p706
aS'SANRAFL_1_N006'
p707
aS'SANRAMON_2_N025'
p708
aS'SANTAFE_7_B1'
p709
aS'SANTAFE_7_B11'
p710
aS'SANTARO_1_N001'
p711
aS'SANTARO_1_N021'
p712
aS'SANTEE_1_N001'
p713
aS'SANTEE_1_N003'
p714
aS'SANTEE_1_N004'
p715
aS'SANYSDRO_6_N001'
p716
aS'SAUGUS_6_N001'
p717
aS'SAUSALTO_6_N001'
p718
aS'SCHMLBCH_1_N001'
p719
aS'SCLARA_2_B1'
p720
aS'SEARLES_7_N001'
p721
aS'SEARLES_7_N002'
p722
aS'SEGS1G_7_B1'
p723
aS'SEGS2G_7_B1'
p724
aS'SERRFGEN_7_B1'
p725
aS'SERRMNTE_1_N011'
p726
aS'SHADOWR_1_N008'
p727
aS'SHARON_1_N001'
p728
aS'SILVERDO_1_N002'
p729
aS'SIMPSON_7_B1'
p730
aS'SJCOGEN_7_B2'
p731
aS'SJCOGEN_7_N001'
p732
aS'SLAC_2_N005'
p733
aS'SLTSPRG_1_B1'
p734
aS'SLVRPS2_7_N001'
p735
aS'SMUDGEO1_7_B1'
p736
aS'SNANDRES_6_N001'
p737
aS'SNLNDRO_1_N017'
p738
aS'SNLNDRO_1_N027'
p739
aS'SNTARSA_1_N006'
p740
aS'SNTHLNE_6_N001'
p741
aS'SNTHLNE_6_N002'
p742
aS'SONOFR2_7_B1'
p743
aS'SONOFR3_7_B1'
p744
aS'SONOFRE_2_N067'
p745
aS'SOUTHBAS_1_N001'
p746
aS'SPRINGVL_6_N004'
p747
aS'SPRINGVL_6_N006'
p748
aS'STAFFORD_6_N002'
p749
aS'STAGG_2_N014'
p750
aS'STAGG_2_N015'
p751
aS'STAGG_6_N001'
p752
aS'STAGG_6_N003'
p753
aS'STANDFD2_1_N011'
p754
aS'STANISLS_1_B1'
p755
aS'STANISLS_1_N001'
p756
aS'STATINJ_1_N001'
p757
aS'STATINJ_1_N012'
p758
aS'STATINJ_1_N027'
p759
aS'STATINX_1_N014'
p760
aS'STATINX_1_N024'
p761
aS'STELLING_1_N004'
p762
aS'STOCKDL_2_N001'
p763
aS'STONCRRL_6_N001'
p764
aS'STONCRRL_6_N003'
p765
aS'STONE_1_N001'
p766
aS'STREAMVW_6_N001'
p767
aS'STUART_6_N001'
p768
aS'SUISUN_1_N001'
p769
aS'SUISUN_1_N009'
p770
aS'SUNOL_6_N001'
p771
aS'SUTTER1_7_ND001'
p772
aS'SUTTER2_7_ND001'
p773
aS'SUTTER3_7_B1'
p774
aS'SWEETWTR_6_N018'
p775
aS'SWIFT_1_N003'
p776
aS'SWIFT_1_N006'
p777
aS'SYCAMORE_1_N101'
p778
aS'SYCAMORE_1_N201'
p779
aS'SYCAMORE_1_N301'
p780
aS'SYCCYN1G_7_B1'
p781
aS'SYCCYN4G_7_B1'
p782
aS'SYLMARDC_2_N501'
p783
aS'SYLMARS_2_N101'
p784
aS'TAFT1_1_B1'
p785
aS'TAMARISK_1_N001'
p786
aS'TAP705_1_B1'
p787
aS'TAP74_6_B1'
p788
aS'TAP77_6_B1'
p789
aS'TAP79_6_B1'
p790
aS'TAP801_1_N001'
p791
aS'TAP817_1_B1'
p792
aS'TBLEMTN_1_B1'
p793
aS'TEICHERT_1_N001'
p794
aS'TEJON_6_N001'
p795
aS'TELECYN_1_N001'
p796
aS'TEMBLOR_1_N003'
p797
aS'TESLA_1_N027'
p798
aS'TESLA_5_B2'
p799
aS'TEVIS_1_N003'
p800
aS'TIDEWATR_2_N001'
p801
aS'TOREYPNS_6_N007'
p802
aS'TORTILLA_1_N001'
p803
aS'TRABUCO_1_N001'
p804
aS'TRABUCO_1_N005'
p805
aS'TRABUCO_1_N009'
p806
aS'TRABUCO_1_N013'
p807
aS'TRACYYG_6_N021'
p808
aS'TRACY_1_N101'
p809
aS'TRACY_5_N047'
p810
aS'TRCYPMP_2_N059'
p811
aS'TRCYPMP_2_N063'
p812
aS'TRESVIS_6_N001'
p813
aS'TRIMBLE_1_N020'
p814
aS'TUDOR_6_N001'
p815
aS'TYLER_6_N002'
p816
aS'UALCOGN_1_N001'
p817
aS'UCM_6_N002'
p818
aS'UKIAH_1_N001'
p819
aS'UKIAH_1_N005'
p820
aS'URBAN_6_N001'
p821
aS'URBAN_6_N005'
p822
aS'VACA-DIX_1_B1'
p823
aS'VACA-DIX_1_N001'
p824
aS'VACAVIL_1_N102'
p825
aS'VALLEYSC_1_N001'
p826
aS'VALLEYSC_1_N013'
p827
aS'VALLEYSC_1_N107'
p828
aS'VALLEYSC_5_B1'
p829
aS'VALLYHM_1_N004'
p830
aS'VEDDER_1_N001'
p831
aS'VELASCO_2_N100'
p832
aS'VESTAL_6_N001'
p833
aS'VESTAL_6_N004'
p834
aS'VICTOR_6_N001'
p835
aS'VICTOR_6_N002'
p836
aS'VIEJOSC_2_N001'
p837
aS'VIEJOSC_2_N004'
p838
aS'VILLAPK_2_N029'
p839
aS'VSTA_1_N001'
p840
aS'WALNUT_6_N001'
p841
aS'WALNUT_6_N008'
p842
aS'WARENCYN_6_N001'
p843
aS'WARENCYN_6_N002'
p844
aS'WASCO_6_N001'
p845
aS'WEBER_6_N001'
p846
aS'WEMRSWS_6_N001'
p847
aS'WHEELBR1_7_B1'
p848
aS'WHEELER_6_N001'
p849
aS'WHELRGPP_2_N004'
p850
aS'WILKINS_6_N001'
p851
aS'WILLAMET_7_B1'
p852
aS'WILLITS_6_N001'
p853
aS'WINDGAP_2_N003'
p854
aS'WNDMSTR_2_N001'
p855
aS'WOHLER_6_N001'
p856
aS'WOLFE_1_N002'
p857
aS'WOODLD_1_N001'
p858
aS'WOODLD_1_N012'
p859
aS'WSCRMNO_1_N013'
p860
aS'WSTLYSMD_2_N011'
p861
aS'ZACA_1_N001'
p862
a.