(lp0
S'BCRK1-2_1_N004'
p1
aS'BCRK4_7_B3'
p2
aS'BELLOTA_2_B1'
p3
aS'BELLPGE_1_N001'
p4
aS'BELRIDGE_1_N001'
p5
aS'BERNARDO_6_N001'
p6
aS'BERNARDO_6_N002'
p7
aS'BERNARDO_6_N014'
p8
aS'BIGCRK1_2_B1'
p9
aS'BIGCRK1_7_N001'
p10
aS'BIGCRK2_2_B1'
p11
aS'BIGCRK3_2_B1'
p12
aS'BIGCRK4_2_B1'
p13
aS'BIGCRK8_2_B1'
p14
aS'BLCH38751_7_B1'
p15
aS'BLLEHVN_6_N002'
p16
aS'BLLEHVN_6_N004'
p17
aS'BLLEHVN_6_N006'
p18
aS'BLLEHVN_6_N007'
p19
aS'BLYTHESC_1_N005'
p20
aS'BLYTHE_1_N101'
p21
aS'BOGUE_1_N201'
p22
aS'BOLINAS_6_N001'
p23
aS'BOLTHSE_1_N009'
p24
aS'BORDEN_2_N008'
p25
aS'BORDER_6_N001'
p26
aS'BORDER_6_N008'
p27
aS'BRDGVLLE_1_B1'
p28
aS'BRDGVLT_7_N002'
p29
aS'BRENTWOD_2_N006'
p30
aS'BRITTN_1_N001'
p31
aS'BRITTN_1_N006'
p32
aS'BRUNSWCK_1_N003'
p33
aS'BRUNSWCK_1_N008'
p34
aS'BRWNSVY_6_N001'
p35
aS'BSPHYD34_1_N001'
p36
aS'BUELLTON_1_N001'
p37
aS'CHWCHLLA_1_N001'
p38
aS'CHWCHLLA_1_N002'
p39
aS'CICCOGN_7_N001'
p40
aS'CICCOGN_7_N002'
p41
aS'CIMA_2_N101'
p42
aS'CITYUKH_1_B1'
p43
aS'CITYUKH_1_N001'
p44
aS'CLAIRMNT_6_N001'
p45
aS'CLAIRMNT_6_N008'
p46
aS'CLAYTN_1_N030'
p47
aS'CLERLKE_6_N012'
p48
aS'CLOVIS_1_N001'
p49
aS'CLOVIS_1_N004'
p50
aS'CLOVIS_1_N101'
p51
aS'CLOVRDLE_1_N001'
p52
aS'CLRKSVLE_1_N004'
p53
aS'CLRKSVLE_1_N010'
p54
aS'CMPEVRS_1_N001'
p55
aS'CMPEVRS_1_N002'
p56
aS'CNTRYCB_6_N001'
p57
aS'CNTRYCB_6_N002'
p58
aS'COBURN_2_B1'
p59
aS'COLLRVL2_7_B1'
p60
aS'COLUMBUS_1_N003'
p61
aS'COLUMBUS_1_N005'
p62
aS'COLWATER_1_N001'
p63
aS'COLWATER_1_N002'
p64
aS'CONTROLX_1_N003'
p65
aS'CONTROLX_1_N005'
p66
aS'CONTROL_1_B1'
p67
aS'CONTROL_1_N034'
p68
aS'CONTROL_7_N001'
p69
aS'CORDELIA_1_N001'
p70
aS'CORNING_6_N006'
p71
aS'CORONADO_6_N001'
p72
aS'CORRAL_6_N001'
p73
aS'CORRAL_6_N003'
p74
aS'DUKMOSS2_7_B1'
p75
aS'DUKMOSS3_7_N002'
p76
aS'DUKMOSS4_7_N001'
p77
aS'DUKMOSS6_7_B2'
p78
aS'DUKMOSS6_7_N002'
p79
aS'DUMBARTN_1_N011'
p80
aS'DUNBAR_6_N001'
p81
aS'DUNNIGAN_6_N001'
p82
aS'DUNNSIDE_1_N001'
p83
aS'DVLCYN4G_7_B1'
p84
aS'EAGLEMTN_2_B1'
p85
aS'EAGLEMTN_2_N001'
p86
aS'EAGLROCK_2_N012'
p87
aS'EASTWOOD_7_B1'
p88
aS'EDENVALE_1_N001'
p89
aS'EDES_1_N003'
p90
aS'EDMON3AP_7_N002'
p91
aS'EDMON4AP_7_N001'
p92
aS'EDMON7AP_7_N001'
p93
aS'EDMON7AP_7_N002'
p94
aS'EDMON8AP_7_N002'
p95
aS'EDMONSTN_2_N023'
p96
aS'EIGHTMI_2_N017'
p97
aS'EISEN_6_N001'
p98
aS'ELCAJNGT_7_B3'
p99
aS'ELCAJNGT_7_N004'
p100
aS'ELCAPTN_1_N001'
p101
aS'ELDORDO_5_B1'
p102
aS'ELKCREEK_6_N003'
p103
aS'ELKHIL2G_7_N001'
p104
aS'ELK_6_N001'
p105
aS'ELLIS_2_B1'
p106
aS'ELLIS_6_N001'
p107
aS'ELLIS_6_N003'
p108
aS'ELLIS_6_N105'
p109
aS'ELLSGTY_1_N001'
p110
aS'ELNIDO_2_N001'
p111
aS'ELPATIO_1_N006'
p112
aS'ELSEG3G_7_B1'
p113
aS'ELSEG4G_7_B1'
p114
aS'EMBRCDR_2_N104'
p115
aS'ENCANWND_6_N001'
p116
aS'ENCINA1_7_B1'
p117
aS'ENCINA2_7_B1'
p118
aS'ENCINA3_7_B1'
p119
aS'ENCINA4_7_B1'
p120
aS'ENCINA5_7_B1'
p121
aS'ENCINAGT_7_B11'
p122
aS'ENCINA_1_B1'
p123
aS'ENCINA_1_N049'
p124
aS'ENCINA_2_B1'
p125
aS'ENCNITAS_6_N004'
p126
aS'ENCNITAS_6_N011'
p127
aS'ESCNDIDO_2_B1'
p128
aS'ESCNDIDO_6_N046'
p129
aS'ESCNDIDO_6_N053'
p130
aS'ESCO_6_N001'
p131
aS'ESCO_6_N004'
p132
aS'ESTGRND_1_N009'
p133
aS'ETIWANDA_6_N003'
p134
aS'ETIWANDA_6_N007'
p135
aS'EUREKAA_6_N001'
p136
aS'EUREKA_6_N001'
p137
aS'EVRGREEN_1_N019'
p138
aS'EXCHQRTP_7_B1'
p139
aS'FAIRHAVN_6_N001'
p140
aS'FAIRHAVN_7_B1'
p141
aS'FAIRWAY_1_N001'
p142
aS'FAIRWAY_1_N002'
p143
aS'FAMOSO_6_N008'
p144
aS'FELLOWSG_7_N002'
p145
aS'FIBRBJCT_1_B1'
p146
aS'FLINT_1_N001'
p147
aS'FMC_1_N001'
p148
aS'FMC_1_N003'
p149
aS'FORTORD_6_N001'
p150
aS'FOSTERW_7_N004'
p151
aS'FRIARS_1_N001'
p152
aS'FRIARS_1_N009'
p153
aS'FRIARS_1_N010'
p154
aS'FROGTOWN_7_N001'
p155
aS'FROGTOWN_7_N003'
p156
aS'FRTSWRD_6_N001'
p157
aS'FRTSWRD_6_N004'
p158
aS'FTCHMTN_6_N001'
p159
aS'FULTON_1_N020'
p160
aS'FULTON_2_B1'
p161
aS'F_6_N001'
p162
aS'F_6_N005'
p163
aS'GALE_1_N001'
p164
aS'GANSO_1_N001'
p165
aS'GARCIA_6_N001'
p166
aS'GARFIELD_6_N001'
p167
aS'GENESEE_6_N001'
p168
aS'GENE_2_N001'
p169
aS'GEYSER16_7_B1'
p170
aS'GEYSER20_7_B1'
p171
aS'GIFFEN_6_N001'
p172
aS'GILROYF_1_N001'
p173
aS'GIRVAN_6_N001'
p174
aS'GOALLINE_6_N001'
p175
aS'GOLDHILL_1_N033'
p176
aS'GOLETA_6_N002'
p177
aS'GOLETA_6_N003'
p178
aS'GOLETA_6_N004'
p179
aS'GOLETA_6_N022'
p180
aS'GOLETA_6_N100'
p181
aS'GORMAN_6_N001'
p182
aS'GOULD_2_N001'
p183
aS'GRANITE_6_N007'
p184
aS'GRANTRK_6_N001'
p185
aS'GRBRVLLE_6_N001'
p186
aS'GREENBRE_6_N003'
p187
aS'GRNTHLL_1_N001'
p188
aS'GRNVALY_1_N001'
p189
aS'GRNVALY_1_N025'
p190
aS'GRSSVLY_6_N101'
p191
aS'GUALALA_6_N001'
p192
aS'GUSTINE_6_N001'
p193
aS'GWFGT1_7_B1'
p194
aS'GYSRVLLE_6_N001'
p195
aS'GYSRVLLE_6_N003'
p196
aS'HALSEYF_7_B1'
p197
aS'HAMMER_6_N001'
p198
aS'JENNY_1_N001'
p199
aS'JENNY_1_N008'
p200
aS'JHINDS_2_B1'
p201
aS'JOHANNA_2_N007'
p202
aS'JOHANNA_2_N013'
p203
aS'JOLON_6_N001'
p204
aS'JVENTER_2_N001'
p205
aS'KEARNEY_7_B3'
p206
aS'KEARNEY_7_N001'
p207
aS'KEARNEY_7_N003'
p208
aS'KELSO_2_N001'
p209
aS'KELSO_2_N012'
p210
aS'KERNRDGE_1_N001'
p211
aS'KESWICK_6_N001'
p212
aS'KETTLEMN_6_N001'
p213
aS'KETTNER_6_N001'
p214
aS'KETTNER_6_N004'
p215
aS'KINGCTY_6_N001'
p216
aS'KINGCTY_6_N005'
p217
aS'KINGSBRG_1_N008'
p218
aS'KINGSRIV_7_B1'
p219
aS'KIRKER_1_N001'
p220
aS'KIRKER_1_N005'
p221
aS'KONOCTI6_6_N001'
p222
aS'LAFRESA_6_N001'
p223
aS'LAFRESA_6_N003'
p224
aS'LAFRESA_6_N007'
p225
aS'LAGNANL_1_N001'
p226
aS'LAGUBELL_2_B1'
p227
aS'LAGUBELL_6_N005'
p228
aS'LAGUBELL_6_N210'
p229
aS'LAGUNITS_6_N001'
p230
aS'LAJOLLA_6_N001'
p231
aS'LAJOLLA_6_N007'
p232
aS'LAKEVIEW_6_N101'
p233
aS'LAKEVILE_2_B1'
p234
aS'LAKEWOOD_1_N006'
p235
aS'MALAGA_1_N206'
p236
aS'MAMOTH1G_7_B1'
p237
aS'MAMOTH2G_7_B1'
p238
aS'MANCHSTR_1_N005'
p239
aS'MANDLY1G_7_N002'
p240
aS'MANDLY3G_7_B1'
p241
aS'MANDLY3G_7_N001'
p242
aS'MANVILLE_1_N001'
p243
aS'MARGARTA_1_N002'
p244
aS'MARGARTA_1_N009'
p245
aS'MARIPOS2_6_N001'
p246
aS'MARTELL_6_N001'
p247
aS'MCARTHR_6_N001'
p248
aS'MCKEE_1_N001'
p249
aS'MCKEE_1_N005'
p250
aS'MCKEE_1_N101'
p251
aS'MECCTG1_7_B1'
p252
aS'MECCTG2_7_N100'
p253
aS'MECSTG3_7_B1'
p254
aS'MEDWLNE_1_N006'
p255
aS'MELROSE_6_N005'
p256
aS'MELROSE_6_N009'
p257
aS'MENLO_6_N001'
p258
aS'MESACAL_6_N001'
p259
aS'MESARIM_6_N012'
p260
aS'METCALF_1_N044'
p261
aS'MIDDLTWN_6_N101'
p262
aS'MIDWAY_1_N002'
p263
aS'MIDWAY_2_B1'
p264
aS'MILLBRAE_1_N001'
p265
aS'MILPITAS_1_N001'
p266
aS'MILPITAS_1_N003'
p267
aS'MILPITAS_1_N006'
p268
aS'MIRALOMA_6_N001'
p269
aS'MIRALOMA_6_N007'
p270
aS'MIRAMAR_6_N001'
p271
aS'MIRAMAR_6_N004'
p272
aS'NEWARKD_1_B2'
p273
aS'NEWBURG_6_N001'
p274
aS'NEWBURG_6_N003'
p275
aS'NEWHALL_1_N001'
p276
aS'NEWHALL_1_N002'
p277
aS'NEWMAN_6_N001'
p278
aS'NOISLMTR_6_N004'
p279
aS'NOISLMTR_6_N009'
p280
aS'NORCO_1_N001'
p281
aS'NORD1_1_N003'
p282
aS'NOVATO_6_N002'
p283
aS'NSCOGEN_7_B1'
p284
aS'NVYSCHL_6_N001'
p285
aS'OAKDLTID_1_N001'
p286
aS'OAKHURST_1_N001'
p287
aS'OAKHURST_1_N002'
p288
aS'OCEANSDE_6_N002'
p289
aS'OILDALE_1_N001'
p290
aS'OILFLDS_6_N009'
p291
aS'OLDTOWN_6_N001'
p292
aS'OLETA_6_N003'
p293
aS'OLINDA_6_N001'
p294
aS'OLINDA_6_N002'
p295
aS'OLINDA_6_N004'
p296
aS'OLIVHRST_1_N002'
p297
aS'OMAR4G_7_B1'
p298
aS'OMAR_2_N001'
p299
aS'OREGNTRL_6_N001'
p300
aS'ORICK_6_N001'
p301
aS'ORLANDB_6_N001'
p302
aS'OROSI_6_N006'
p303
aS'OTAY_6_N001'
p304
aS'OTAY_6_N014'
p305
aS'OTAY_6_N017'
p306
aS'OTAY_6_N018'
p307
aS'OTTER_6_N001'
p308
aS'OXFORD_1_N001'
p309
aS'RECTOR_6_N004'
p310
aS'RECTOR_6_N007'
p311
aS'RECTOR_6_N009'
p312
aS'REDON5G_7_B1'
p313
aS'REDON6G_7_B1'
p314
aS'REDWOOD_6_N006'
p315
aS'REEDLEY_1_N001'
p316
aS'REEDLEY_6_N001'
p317
aS'RENWIND_1_N001'
p318
aS'RERCU2_7_B1'
p319
aS'RINCON_1_N001'
p320
aS'RINCON_1_N003'
p321
aS'RINCON_6_N001'
p322
aS'RINCON_6_N008'
p323
aS'RIODELL_6_N001'
p324
aS'RIOHONDO_6_N007'
p325
aS'RIOOSO_1_N033'
p326
aS'RIVERROC_6_N001'
p327
aS'RIVRBANK_1_N001'
p328
aS'RIVRSIDE_6_N001'
p329
aS'RNCHSECO_2_N107'
p330
aS'ROA-230_2_N101'
p331
aS'ROCKCK2_7_B1'
p332
aS'ROCKLIN_6_N001'
p333
aS'ROCKLIN_6_N003'
p334
aS'ROSECYN_6_N001'
p335
aS'ROSE_6_N001'
p336
aS'ROSSMOOR_2_N001'
p337
aS'ROSSMOOR_2_N101'
p338
aS'ROUNDMT_2_B1'
p339
aS'RTRACK_1_N001'
p340
aS'RUSSRCH_6_N001'
p341
aS'SANCRLS_6_N004'
p342
aS'SANGERCO_7_B1'
p343
aS'SANJOQN_6_N001'
p344
aS'SANJOQN_6_N006'
p345
aS'SANLUIS2_7_B1'
p346
aS'SPRINGVL_6_N004'
p347
aS'SPRINGVL_6_N006'
p348
aS'STAFFORD_6_N002'
p349
aS'STAGG_2_N014'
p350
aS'STAGG_2_N015'
p351
aS'STAGG_6_N001'
p352
aS'STAGG_6_N003'
p353
aS'STANDFD2_1_N011'
p354
aS'STANISLS_1_B1'
p355
aS'STANISLS_1_N001'
p356
aS'STATINJ_1_N001'
p357
aS'STATINJ_1_N012'
p358
aS'STATINJ_1_N027'
p359
aS'STATINX_1_N014'
p360
aS'STATINX_1_N024'
p361
aS'STELLING_1_N004'
p362
aS'STOCKDL_2_N001'
p363
aS'STONCRRL_6_N001'
p364
aS'STONCRRL_6_N003'
p365
aS'STONE_1_N001'
p366
aS'STREAMVW_6_N001'
p367
aS'STUART_6_N001'
p368
aS'SUISUN_1_N001'
p369
aS'SUISUN_1_N009'
p370
aS'SUNOL_6_N001'
p371
aS'SUTTER1_7_ND001'
p372
aS'SUTTER2_7_ND001'
p373
aS'SUTTER3_7_B1'
p374
aS'SWEETWTR_6_N018'
p375
aS'SWIFT_1_N003'
p376
aS'SWIFT_1_N006'
p377
aS'SYCAMORE_1_N101'
p378
aS'SYCAMORE_1_N201'
p379
aS'SYCAMORE_1_N301'
p380
aS'SYCCYN1G_7_B1'
p381
aS'SYCCYN4G_7_B1'
p382
aS'SYLMARDC_2_N501'
p383
aS'VESTAL_6_N004'
p384
aS'VICTOR_6_N001'
p385
aS'VICTOR_6_N002'
p386
aS'VIEJOSC_2_N001'
p387
aS'VIEJOSC_2_N004'
p388
aS'VILLAPK_2_N029'
p389
aS'VSTA_1_N001'
p390
aS'WALNUT_6_N001'
p391
aS'WALNUT_6_N008'
p392
aS'WARENCYN_6_N001'
p393
aS'WARENCYN_6_N002'
p394
aS'WASCO_6_N001'
p395
aS'WEBER_6_N001'
p396
aS'WEMRSWS_6_N001'
p397
aS'WHEELBR1_7_B1'
p398
aS'WHEELER_6_N001'
p399
aS'WHELRGPP_2_N004'
p400
aS'WILKINS_6_N001'
p401
aS'WILLAMET_7_B1'
p402
aS'WILLITS_6_N001'
p403
aS'WINDGAP_2_N003'
p404
aS'WNDMSTR_2_N001'
p405
aS'WOHLER_6_N001'
p406
aS'WOLFE_1_N002'
p407
aS'WOODLD_1_N001'
p408
aS'WOODLD_1_N012'
p409
aS'WSCRMNO_1_N013'
p410
aS'WSTLYSMD_2_N011'
p411
aS'ZACA_1_N001'
p412
a.