(lp0
S'FRNCHGLH_6_N001'
p1
aS'DELMNTE_1_N201'
p2
aS'BNAVSTA_6_N002'
p3
aS'BAHIA_2_N011'
p4
aS'BARRY_6_N001'
p5
aS'PRUNEDLE_1_N001'
p6
aS'HILLSIDE_1_N004'
p7
aS'TAFT1_1_N001'
p8
aS'WARNERVL_2_B1'
p9
aS'ELKCREEK_6_N001'
p10
aS'SANRAMON_2_N024'
p11
aS'SOBRANTE_1_N001'
p12
aS'ELCRRTO_1_N001'
p13
aS'WHITMORE_6_N001'
p14
aS'HIDESERT_2_N001'
p15
aS'DIABLO2_7_B1'
p16
aS'LOSCCHS_6_N001'
p17
aS'MTVIEW_1_N005'
p18
aS'ALTO_6_N101'
p19
aS'ALTWIND_1_N001'
p20
aS'GARNET_1_N106'
p21
aS'SEAWIND_1_B1'
p22
aS'MEADN_2_N501'
p23
aS'CLAYTN_1_N001'
p24
aS'CAPWIND_1_B1'
p25
aS'MCCULLGX_5_N501'
p26
aS'STDOIL_1_N009'
p27
aS'PETLMAC_6_N004'
p28
aS'CONCHO_1_N002'
p29
aS'ESTQNCY_6_N001'
p30
aS'OMAR1G_7_B1'
p31
aS'CREELMAN_6_N014'
p32
aS'EDMON6AP_7_N001'
p33
aS'SPRINGVL_6_N002'
p34
aS'MIDWAY_1_B1'
p35
aS'MCMULLN1_2_N001'
p36
aS'CLARKRD_7_N001'
p37
aS'OROLOMA_6_N001'
p38
aS'LSPSTAS_2_N002'
p39
aS'SALINAS_1_N033'
p40
aS'CARBONA_6_N003'
p41
aS'CHARKA_1_N001'
p42
aS'WPBART_1_N004'
p43
aS'TRACY_1_N002'
p44
aS'KERNFRNT_1_B1'
p45
aS'RADUM_6_N004'
p46
aS'SANRAFL_1_N001'
p47
aS'KAMM_1_N001'
p48
aS'PIT1U1_7_B1'
p49
aS'RIOBRVTM_1_B1'
p50
aS'HAMMONDS_1_N001'
p51
aS'VSTA_6_N001'
p52
aS'AVOCADO_6_N002'
p53
aS'RENFRO_1_N010'
p54
aS'FRUITVLE_6_N101'
p55
aS'BRKRSLG_1_N005'
p56
aS'DEEPWATR_1_N104'
p57
aS'GOLDTREE_1_N001'
p58
aS'KERMAN_6_N002'
p59
aS'WSCOPRSN_1_N001'
p60
aS'HOLGATE_1_N001'
p61
aS'STOCKDL_2_N002'
p62
aS'PSE-BEAR_7_B1'
p63
aS'CHANNEL_6_N001'
p64
aS'DAVIS_1_N018'
p65
aS'ROCKET_1_N001'
p66
aS'LUZ8G_7_B1'
p67
aS'KERNOIL_1_N002'
p68
aS'DVLCYN2G_7_B1'
p69
aS'KERNOIL_1_N012'
p70
aS'MHVSPHN_1_N101'
p71
aS'MTNVIST3_7_N002'
p72
aS'EDENVALE_1_N006'
p73
aS'VSTA_1_N005'
p74
aS'KERNWATR_1_N001'
p75
aS'MERCED_1_N001'
p76
a.